Certificate:
    Data:
        Version: 3 (0x2)
        Serial Number: 3 (0x3)
    Signature Algorithm: sha256WithRSAEncryption
        Issuer: C=US, ST=CA, L=SanFrancisco, O=Fort-Funston, OU=MyOrganizationalUnit, CN=Fort-Funston CA/name=EasyRSA/emailAddress=me@myhost.mydomain
        Validity
            Not Before: May 12 12:58:39 2016 GMT
            Not After : May 10 12:58:39 2026 GMT
        Subject: C=US, ST=CA, L=SanFrancisco, O=Fort-Funston, OU=MyOrganizationalUnit, CN=thor/name=EasyRSA/emailAddress=me@myhost.mydomain
        Subject Public Key Info:
            Public Key Algorithm: rsaEncryption
                Public-Key: (4096 bit)
                Modulus:
                    00:e3:88:b7:a3:47:af:08:2c:d4:38:15:49:c6:84:
                    65:6f:80:7c:ad:a1:2f:62:58:70:3f:2c:3b:84:e9:
                    e2:8b:7c:a9:a2:c2:ad:2e:61:7d:cd:e7:5e:38:02:
                    04:0f:bb:57:19:0f:97:8e:ec:a6:77:80:f5:cf:ff:
                    65:ed:8f:e5:4f:d0:dd:0a:d4:97:1f:50:e9:8a:f5:
                    ce:04:ac:ac:e9:7c:26:96:ed:a2:cf:87:5d:67:c9:
                    0c:59:50:86:97:1f:8d:c6:8d:af:05:64:33:5a:03:
                    2c:ce:72:8a:4f:12:84:79:42:90:be:bf:57:11:9f:
                    fa:9f:ed:a4:d6:39:2f:4f:05:bf:01:8a:8c:ff:e4:
                    58:e2:8e:65:3a:75:90:a4:7e:20:a1:d0:d3:73:1f:
                    ef:f6:6d:e4:63:0f:61:e9:a9:57:7e:65:f6:da:d8:
                    ad:83:5f:f9:d4:19:42:f3:07:48:9a:e9:aa:de:3a:
                    a1:ae:0e:e9:b7:c2:b7:ff:c6:c1:98:a3:04:60:35:
                    02:2e:f3:32:0f:46:6f:d0:54:85:0c:d4:1c:8c:89:
                    24:26:73:c6:c2:78:60:0b:94:55:a0:e3:75:19:18:
                    84:6f:3e:ab:2d:6f:f3:31:8d:53:92:00:27:da:c5:
                    e6:f2:4e:f6:27:fb:e7:62:75:16:cc:e8:51:b1:7b:
                    89:f2:dc:51:01:46:74:99:62:cb:62:e3:d7:81:b0:
                    21:14:4b:12:c5:4a:b8:d1:1c:9b:b6:f6:fd:af:7a:
                    10:d1:a5:f8:83:00:be:0b:24:9e:86:43:10:4a:56:
                    9c:8c:1e:3f:cc:e3:dd:f4:e8:28:74:29:31:a1:a8:
                    07:b7:c7:56:ad:ae:02:c6:4e:0b:bc:0e:0a:30:40:
                    61:7c:74:e4:c6:df:b9:da:9e:90:86:2b:aa:82:e6:
                    36:c2:88:1e:79:33:b8:96:91:83:11:9d:1c:21:23:
                    ed:3f:aa:2c:34:40:64:50:20:1d:16:fb:f6:d7:ac:
                    30:64:7e:6e:44:a8:87:c3:99:d4:d1:d5:6d:f9:ef:
                    00:03:fe:5a:a1:a5:a8:1b:b8:21:95:e1:31:d1:18:
                    c8:a8:8f:a3:7e:27:79:64:3e:a4:1d:76:be:05:31:
                    cf:3f:22:7f:9f:3e:c7:a8:de:71:b5:cc:6a:2b:25:
                    47:e6:46:ad:6f:57:4a:6c:30:42:09:07:c6:c4:ca:
                    95:6f:62:0a:6f:c0:95:41:a6:cf:62:9d:1f:f3:4d:
                    66:cb:1c:68:fc:9c:10:44:b4:c2:a5:c4:0c:23:ea:
                    fd:f4:58:13:0d:3d:0f:eb:66:b6:2e:b8:f3:4c:02:
                    44:d7:17:00:52:07:8f:3b:14:38:1a:7d:33:9e:b6:
                    fd:2c:9f
                Exponent: 65537 (0x10001)
        X509v3 extensions:
            X509v3 Basic Constraints: 
                CA:FALSE
            Netscape Comment: 
                Easy-RSA Generated Certificate
            X509v3 Subject Key Identifier: 
                F1:61:94:26:73:67:70:E4:2A:B8:5E:90:E4:F3:97:4A:62:29:C5:95
            X509v3 Authority Key Identifier: 
                keyid:11:04:E6:D3:53:01:A7:AB:53:FE:74:02:18:AB:63:5D:9F:24:CF:5A
                DirName:/C=US/ST=CA/L=SanFrancisco/O=Fort-Funston/OU=MyOrganizationalUnit/CN=Fort-Funston CA/name=EasyRSA/emailAddress=me@myhost.mydomain
                serial:E8:9E:5A:0F:B0:41:37:D1

            X509v3 Extended Key Usage: 
                TLS Web Client Authentication
            X509v3 Key Usage: 
                Digital Signature
    Signature Algorithm: sha256WithRSAEncryption
         6e:68:be:40:92:9c:b2:63:dd:56:86:21:be:b8:19:69:cb:15:
         ca:89:8c:11:8c:dd:5d:8d:d2:8b:86:bf:30:00:fa:0c:99:f5:
         b9:bb:dd:2f:e5:24:bc:9c:da:5b:cd:b3:b1:60:20:2d:d8:f2:
         a1:8c:0b:df:24:d5:84:ba:ec:c0:aa:a3:d2:7c:5e:a1:2a:dd:
         19:26:ce:e1:0e:ef:58:31:23:93:75:56:14:40:3b:7e:45:36:
         0f:f7:33:86:1d:35:c4:75:9f:fa:44:17:47:42:3d:12:5b:0c:
         d2:64:7a:12:5f:b6:60:b6:b8:4b:2b:48:85:4a:91:09:49:47:
         12:51:b5:76:31:72:3a:f7:d6:f5:78:a6:20:1f:0a:1e:0e:d7:
         d8:77:55:48:33:8a:a7:67:3e:08:3d:6e:67:f2:de:a2:c8:ae:
         23:17:73:e2:39:ed:69:0b:c2:ba:1d:d3:87:8e:24:5c:fc:4e:
         2a:b8:d5:ff:77:66:16:3a:3a:d4:87:13:3d:e8:f7:5a:3b:ad:
         4d:9d:c4:73:a1:fb:78:08:c3:46:2a:7b:01:ba:e9:7d:e2:13:
         57:bb:32:8e:a8:c7:e8:23:fd:19:24:23:4c:46:2d:b5:dc:f6:
         ae:d0:29:62:23:07:03:5f:8c:f5:6f:db:5d:25:f9:15:ee:3e:
         37:01:10:b4:be:fc:c1:64:fc:ae:80:e3:2a:89:8c:59:8a:09:
         ee:a2:de:20:48:4e:cd:0d:c0:84:3e:8a:4f:55:7f:4e:2a:50:
         f7:7b:c8:11:b5:cb:2e:d6:98:58:d1:6d:08:6c:3b:c6:56:4d:
         bc:7f:be:4e:b4:24:fb:bc:13:f1:a1:07:93:34:23:9c:c8:3f:
         11:46:88:b3:6b:10:72:36:1d:e1:5a:a3:13:14:7b:7f:65:2e:
         1f:2a:b4:86:51:d3:1a:e0:e5:d1:9f:e9:4f:d4:64:c9:81:14:
         d7:28:8d:b5:d5:04:c4:73:52:10:bd:65:0c:a0:38:1f:03:bd:
         cb:8a:66:c7:b4:ae:08:48:00:9c:8b:8e:f3:e1:97:e6:7b:3e:
         02:9c:45:78:36:4e:12:06:d0:3b:9d:68:b4:75:7d:8d:ff:d9:
         19:3a:40:ec:ee:b4:ad:6e:67:cc:cd:2f:b0:97:2f:f8:0c:a8:
         28:4b:47:59:5b:52:cc:44:19:1d:e9:68:31:38:87:dc:6a:15:
         a2:4c:4e:32:fc:2d:b8:88:72:7f:cb:05:ff:b4:45:49:eb:99:
         ef:92:4f:42:27:bb:bd:3a:39:52:93:b3:47:95:02:56:8e:c5:
         f6:26:04:45:eb:94:a0:2f:e8:df:87:c6:86:56:21:68:cc:d4:
         80:09:ef:0e:75:f0:fa:40
-----BEGIN CERTIFICATE-----
MIIHTTCCBTWgAwIBAgIBAzANBgkqhkiG9w0BAQsFADCBtjELMAkGA1UEBhMCVVMx
CzAJBgNVBAgTAkNBMRUwEwYDVQQHEwxTYW5GcmFuY2lzY28xFTATBgNVBAoTDEZv
cnQtRnVuc3RvbjEdMBsGA1UECxMUTXlPcmdhbml6YXRpb25hbFVuaXQxGDAWBgNV
BAMTD0ZvcnQtRnVuc3RvbiBDQTEQMA4GA1UEKRMHRWFzeVJTQTEhMB8GCSqGSIb3
DQEJARYSbWVAbXlob3N0Lm15ZG9tYWluMB4XDTE2MDUxMjEyNTgzOVoXDTI2MDUx
MDEyNTgzOVowgasxCzAJBgNVBAYTAlVTMQswCQYDVQQIEwJDQTEVMBMGA1UEBxMM
U2FuRnJhbmNpc2NvMRUwEwYDVQQKEwxGb3J0LUZ1bnN0b24xHTAbBgNVBAsTFE15
T3JnYW5pemF0aW9uYWxVbml0MQ0wCwYDVQQDEwR0aG9yMRAwDgYDVQQpEwdFYXN5
UlNBMSEwHwYJKoZIhvcNAQkBFhJtZUBteWhvc3QubXlkb21haW4wggIiMA0GCSqG
SIb3DQEBAQUAA4ICDwAwggIKAoICAQDjiLejR68ILNQ4FUnGhGVvgHytoS9iWHA/
LDuE6eKLfKmiwq0uYX3N5144AgQPu1cZD5eO7KZ3gPXP/2Xtj+VP0N0K1JcfUOmK
9c4ErKzpfCaW7aLPh11nyQxZUIaXH43Gja8FZDNaAyzOcopPEoR5QpC+v1cRn/qf
7aTWOS9PBb8Bioz/5FjijmU6dZCkfiCh0NNzH+/2beRjD2HpqVd+Zfba2K2DX/nU
GULzB0ia6areOqGuDum3wrf/xsGYowRgNQIu8zIPRm/QVIUM1ByMiSQmc8bCeGAL
lFWg43UZGIRvPqstb/MxjVOSACfaxebyTvYn++didRbM6FGxe4ny3FEBRnSZYsti
49eBsCEUSxLFSrjRHJu29v2vehDRpfiDAL4LJJ6GQxBKVpyMHj/M49306Ch0KTGh
qAe3x1atrgLGTgu8DgowQGF8dOTG37nanpCGK6qC5jbCiB55M7iWkYMRnRwhI+0/
qiw0QGRQIB0W+/bXrDBkfm5EqIfDmdTR1W357wAD/lqhpagbuCGV4THRGMioj6N+
J3lkPqQddr4FMc8/In+fPseo3nG1zGorJUfmRq1vV0psMEIJB8bEypVvYgpvwJVB
ps9inR/zTWbLHGj8nBBEtMKlxAwj6v30WBMNPQ/rZrYuuPNMAkTXFwBSB487FDga
fTOetv0snwIDAQABo4IBbTCCAWkwCQYDVR0TBAIwADAtBglghkgBhvhCAQ0EIBYe
RWFzeS1SU0EgR2VuZXJhdGVkIENlcnRpZmljYXRlMB0GA1UdDgQWBBTxYZQmc2dw
5Cq4XpDk85dKYinFlTCB6wYDVR0jBIHjMIHggBQRBObTUwGnq1P+dAIYq2NdnyTP
WqGBvKSBuTCBtjELMAkGA1UEBhMCVVMxCzAJBgNVBAgTAkNBMRUwEwYDVQQHEwxT
YW5GcmFuY2lzY28xFTATBgNVBAoTDEZvcnQtRnVuc3RvbjEdMBsGA1UECxMUTXlP
cmdhbml6YXRpb25hbFVuaXQxGDAWBgNVBAMTD0ZvcnQtRnVuc3RvbiBDQTEQMA4G
A1UEKRMHRWFzeVJTQTEhMB8GCSqGSIb3DQEJARYSbWVAbXlob3N0Lm15ZG9tYWlu
ggkA6J5aD7BBN9EwEwYDVR0lBAwwCgYIKwYBBQUHAwIwCwYDVR0PBAQDAgeAMA0G
CSqGSIb3DQEBCwUAA4ICAQBuaL5AkpyyY91WhiG+uBlpyxXKiYwRjN1djdKLhr8w
APoMmfW5u90v5SS8nNpbzbOxYCAt2PKhjAvfJNWEuuzAqqPSfF6hKt0ZJs7hDu9Y
MSOTdVYUQDt+RTYP9zOGHTXEdZ/6RBdHQj0SWwzSZHoSX7ZgtrhLK0iFSpEJSUcS
UbV2MXI699b1eKYgHwoeDtfYd1VIM4qnZz4IPW5n8t6iyK4jF3PiOe1pC8K6HdOH
jiRc/E4quNX/d2YWOjrUhxM96PdaO61NncRzoft4CMNGKnsBuul94hNXuzKOqMfo
I/0ZJCNMRi213Pau0CliIwcDX4z1b9tdJfkV7j43ARC0vvzBZPyugOMqiYxZignu
ot4gSE7NDcCEPopPVX9OKlD3e8gRtcsu1phY0W0IbDvGVk28f75OtCT7vBPxoQeT
NCOcyD8RRoizaxByNh3hWqMTFHt/ZS4fKrSGUdMa4OXRn+lP1GTJgRTXKI211QTE
c1IQvWUMoDgfA73LimbHtK4ISACci47z4Zfmez4CnEV4Nk4SBtA7nWi0dX2N/9kZ
OkDs7rStbmfMzS+wly/4DKgoS0dZW1LMRBkd6WgxOIfcahWiTE4y/C24iHJ/ywX/
tEVJ65nvkk9CJ7u9OjlSk7NHlQJWjsX2JgRF65SgL+jfh8aGViFozNSACe8OdfD6
QA==
-----END CERTIFICATE-----
