Certificate:
    Data:
        Version: 3 (0x2)
        Serial Number: 2 (0x2)
    Signature Algorithm: sha256WithRSAEncryption
        Issuer: C=US, ST=CA, L=SanFrancisco, O=Fort-Funston, OU=MyOrganizationalUnit, CN=Fort-Funston CA/name=EasyRSA/emailAddress=me@myhost.mydomain
        Validity
            Not Before: May 12 12:58:24 2016 GMT
            Not After : May 10 12:58:24 2026 GMT
        Subject: C=US, ST=CA, L=SanFrancisco, O=Fort-Funston, OU=MyOrganizationalUnit, CN=banana/name=EasyRSA/emailAddress=me@myhost.mydomain
        Subject Public Key Info:
            Public Key Algorithm: rsaEncryption
                Public-Key: (4096 bit)
                Modulus:
                    00:b7:a7:3e:00:56:a1:b0:ff:68:0e:13:3a:15:3f:
                    23:60:36:70:5a:db:ef:c9:4f:d1:da:45:31:c1:f3:
                    44:1c:0b:4d:eb:6e:ad:ab:ab:08:24:78:5f:65:4f:
                    a9:b8:6c:02:26:78:ee:cb:6c:50:3e:4c:50:a2:80:
                    6e:13:5e:48:67:b7:4d:37:4b:50:66:0b:5a:c7:b1:
                    a0:34:21:49:b6:8c:0d:05:59:e0:44:61:4c:bd:06:
                    f1:4b:fb:93:08:80:cc:32:c0:19:99:a7:7d:f1:21:
                    8e:83:72:df:b1:d9:91:8d:a5:f3:a1:4c:e4:e3:52:
                    4d:e5:65:0b:7d:b8:54:92:f0:f3:92:8a:df:9c:d0:
                    fe:6e:45:68:7d:98:1c:47:74:45:4f:50:f6:6a:5d:
                    b2:5f:67:b8:72:a3:64:3e:09:4a:85:da:37:04:4e:
                    42:89:3b:ac:ec:33:71:45:b3:b1:90:e7:21:00:8a:
                    ad:e2:18:63:48:ff:a1:b2:84:da:e0:d1:f8:24:56:
                    9a:81:3c:2e:6a:bf:f6:bc:71:5b:f9:10:31:6e:25:
                    87:54:55:4c:1d:e3:12:c9:85:11:b4:aa:31:9f:76:
                    71:18:33:94:01:19:93:2b:8d:92:60:a2:f0:40:95:
                    09:b9:2a:50:6e:b3:28:37:ed:f7:57:da:5c:75:8b:
                    c0:d7:1e:ae:51:f0:01:ab:0a:bb:08:ba:70:ac:6e:
                    3a:fe:da:ec:20:73:4f:84:fb:c6:6a:07:76:87:dd:
                    90:68:68:6b:46:a9:8b:7f:39:cc:c6:21:83:49:1f:
                    88:2e:86:c2:48:48:81:a1:28:e4:46:f7:12:d1:9c:
                    16:24:8c:71:6a:39:75:e1:49:a6:75:85:03:e6:c5:
                    25:a9:44:92:0a:f2:aa:f5:f0:c8:f2:e9:a8:d0:e9:
                    f5:bf:60:43:de:46:87:fa:f5:32:74:97:64:5b:4e:
                    bc:48:99:0a:77:57:ec:42:17:bc:1a:65:2e:ee:1b:
                    3b:92:13:03:a4:5d:c1:d1:9d:f9:4e:e7:e6:bc:d5:
                    a2:bd:57:ad:b5:f8:07:43:29:b2:0e:49:68:42:38:
                    be:51:72:1b:a9:8b:6b:df:60:97:06:50:c3:7c:73:
                    2d:fd:ca:13:a4:d4:9d:76:97:49:2c:f5:5d:b7:0f:
                    76:3d:1b:2c:9b:01:6d:28:b9:81:7d:c8:22:1c:39:
                    4c:bf:ca:92:12:91:43:30:58:64:dc:fb:13:cf:30:
                    f8:d8:2c:1d:81:13:87:65:aa:bf:eb:a3:58:7b:92:
                    f9:16:03:61:1f:25:4b:3e:f2:2e:70:aa:3b:b1:41:
                    54:68:4a:63:cf:e3:a5:d3:f7:d5:8a:39:b0:a2:0b:
                    d0:97:1b
                Exponent: 65537 (0x10001)
        X509v3 extensions:
            X509v3 Basic Constraints: 
                CA:FALSE
            Netscape Comment: 
                Easy-RSA Generated Certificate
            X509v3 Subject Key Identifier: 
                61:6D:39:DC:28:E6:92:E6:C3:7C:11:83:EA:E3:38:3C:DC:1D:5E:28
            X509v3 Authority Key Identifier: 
                keyid:11:04:E6:D3:53:01:A7:AB:53:FE:74:02:18:AB:63:5D:9F:24:CF:5A
                DirName:/C=US/ST=CA/L=SanFrancisco/O=Fort-Funston/OU=MyOrganizationalUnit/CN=Fort-Funston CA/name=EasyRSA/emailAddress=me@myhost.mydomain
                serial:E8:9E:5A:0F:B0:41:37:D1

            X509v3 Extended Key Usage: 
                TLS Web Client Authentication
            X509v3 Key Usage: 
                Digital Signature
    Signature Algorithm: sha256WithRSAEncryption
         aa:81:1a:f8:17:b9:cd:7c:99:70:d8:79:7e:7d:f9:2c:64:83:
         2b:b4:a3:09:90:04:f5:19:e4:55:70:62:85:81:ab:28:35:2f:
         8a:ac:84:8b:1d:6d:7e:cc:ba:d4:60:02:aa:df:72:79:9a:66:
         4c:e3:30:7e:69:b4:65:04:9d:42:6f:df:41:35:90:66:be:d9:
         b0:ee:4f:8b:2c:74:7e:6e:02:5a:ae:f0:ba:3a:96:da:43:05:
         ea:93:1b:8c:80:8a:61:e4:54:72:b7:de:30:97:62:fb:e7:70:
         1b:f3:fe:e9:49:ea:6b:7d:17:34:32:25:e0:e2:04:c3:a8:d2:
         68:18:88:cb:a0:7d:92:a4:9a:c6:56:cc:11:c8:bd:04:47:72:
         63:87:42:23:7d:70:cb:ea:ba:58:de:f1:a8:3d:78:42:3a:c8:
         fb:40:c8:c0:6d:d4:2f:1e:65:ea:44:8f:10:fb:02:f6:60:ba:
         48:0d:f5:6e:e7:a9:0e:99:ef:23:45:80:ad:05:a6:cd:2a:bc:
         23:55:c9:16:7f:78:b5:10:02:34:4d:a8:0d:f2:e1:ae:ae:94:
         9c:6a:f8:65:50:eb:70:fe:4b:b9:09:b5:a0:de:18:02:14:b8:
         ca:75:b7:8f:dc:25:91:07:96:ca:d0:ef:7b:e6:3d:8c:25:9a:
         db:bd:a1:e9:e2:5c:f2:b0:7a:cb:3f:21:dc:76:fc:95:70:9f:
         9d:fe:3a:fd:d2:1c:40:5e:9d:84:80:92:0e:c8:61:77:67:ae:
         f7:3e:f2:c5:d5:d1:57:2a:82:70:39:2b:df:65:f0:0f:df:a6:
         ab:f9:ce:d8:58:45:87:d3:37:ff:8d:9c:79:c7:3b:d6:d8:7b:
         f3:a2:10:a5:32:c5:31:a6:25:fa:22:93:eb:9b:5b:07:b5:13:
         97:e8:e5:29:a9:a0:41:2b:2b:5d:17:ca:40:44:dc:0e:9f:22:
         e6:7e:67:30:5f:1a:79:bc:0d:58:87:4b:83:5e:01:bb:81:7d:
         ef:87:b1:71:54:a3:d8:e7:c3:d2:43:02:4a:b9:fd:f7:47:58:
         99:b3:ac:10:f1:1f:71:d8:45:ef:c8:55:73:36:df:57:55:93:
         3b:9d:97:41:df:4a:24:01:3f:24:7f:5a:5f:1f:6b:b6:0b:cb:
         62:67:e6:e2:9b:a6:aa:1b:43:7f:b7:b4:f5:46:6f:b4:9f:ad:
         5b:f2:8d:fb:7b:23:7c:bb:35:39:b4:b7:de:d2:e8:5d:8a:7a:
         1d:c4:aa:ff:da:35:95:db:8e:ef:f2:d7:6f:8e:91:f5:f5:37:
         0d:47:60:bc:24:f9:50:d9:bf:74:3b:9b:63:7c:fb:d9:ac:98:
         eb:dd:a2:dd:74:cf:f9:41
-----BEGIN CERTIFICATE-----
MIIHTzCCBTegAwIBAgIBAjANBgkqhkiG9w0BAQsFADCBtjELMAkGA1UEBhMCVVMx
CzAJBgNVBAgTAkNBMRUwEwYDVQQHEwxTYW5GcmFuY2lzY28xFTATBgNVBAoTDEZv
cnQtRnVuc3RvbjEdMBsGA1UECxMUTXlPcmdhbml6YXRpb25hbFVuaXQxGDAWBgNV
BAMTD0ZvcnQtRnVuc3RvbiBDQTEQMA4GA1UEKRMHRWFzeVJTQTEhMB8GCSqGSIb3
DQEJARYSbWVAbXlob3N0Lm15ZG9tYWluMB4XDTE2MDUxMjEyNTgyNFoXDTI2MDUx
MDEyNTgyNFowga0xCzAJBgNVBAYTAlVTMQswCQYDVQQIEwJDQTEVMBMGA1UEBxMM
U2FuRnJhbmNpc2NvMRUwEwYDVQQKEwxGb3J0LUZ1bnN0b24xHTAbBgNVBAsTFE15
T3JnYW5pemF0aW9uYWxVbml0MQ8wDQYDVQQDEwZiYW5hbmExEDAOBgNVBCkTB0Vh
c3lSU0ExITAfBgkqhkiG9w0BCQEWEm1lQG15aG9zdC5teWRvbWFpbjCCAiIwDQYJ
KoZIhvcNAQEBBQADggIPADCCAgoCggIBALenPgBWobD/aA4TOhU/I2A2cFrb78lP
0dpFMcHzRBwLTeturaurCCR4X2VPqbhsAiZ47stsUD5MUKKAbhNeSGe3TTdLUGYL
WsexoDQhSbaMDQVZ4ERhTL0G8Uv7kwiAzDLAGZmnffEhjoNy37HZkY2l86FM5ONS
TeVlC324VJLw85KK35zQ/m5FaH2YHEd0RU9Q9mpdsl9nuHKjZD4JSoXaNwROQok7
rOwzcUWzsZDnIQCKreIYY0j/obKE2uDR+CRWmoE8Lmq/9rxxW/kQMW4lh1RVTB3j
EsmFEbSqMZ92cRgzlAEZkyuNkmCi8ECVCbkqUG6zKDft91faXHWLwNcerlHwAasK
uwi6cKxuOv7a7CBzT4T7xmoHdofdkGhoa0api385zMYhg0kfiC6GwkhIgaEo5Eb3
EtGcFiSMcWo5deFJpnWFA+bFJalEkgryqvXwyPLpqNDp9b9gQ95Gh/r1MnSXZFtO
vEiZCndX7EIXvBplLu4bO5ITA6RdwdGd+U7n5rzVor1XrbX4B0Mpsg5JaEI4vlFy
G6mLa99glwZQw3xzLf3KE6TUnXaXSSz1XbcPdj0bLJsBbSi5gX3IIhw5TL/KkhKR
QzBYZNz7E88w+NgsHYETh2Wqv+ujWHuS+RYDYR8lSz7yLnCqO7FBVGhKY8/jpdP3
1Yo5sKIL0JcbAgMBAAGjggFtMIIBaTAJBgNVHRMEAjAAMC0GCWCGSAGG+EIBDQQg
Fh5FYXN5LVJTQSBHZW5lcmF0ZWQgQ2VydGlmaWNhdGUwHQYDVR0OBBYEFGFtOdwo
5pLmw3wRg+rjODzcHV4oMIHrBgNVHSMEgeMwgeCAFBEE5tNTAaerU/50AhirY12f
JM9aoYG8pIG5MIG2MQswCQYDVQQGEwJVUzELMAkGA1UECBMCQ0ExFTATBgNVBAcT
DFNhbkZyYW5jaXNjbzEVMBMGA1UEChMMRm9ydC1GdW5zdG9uMR0wGwYDVQQLExRN
eU9yZ2FuaXphdGlvbmFsVW5pdDEYMBYGA1UEAxMPRm9ydC1GdW5zdG9uIENBMRAw
DgYDVQQpEwdFYXN5UlNBMSEwHwYJKoZIhvcNAQkBFhJtZUBteWhvc3QubXlkb21h
aW6CCQDonloPsEE30TATBgNVHSUEDDAKBggrBgEFBQcDAjALBgNVHQ8EBAMCB4Aw
DQYJKoZIhvcNAQELBQADggIBAKqBGvgXuc18mXDYeX59+Sxkgyu0owmQBPUZ5FVw
YoWBqyg1L4qshIsdbX7MutRgAqrfcnmaZkzjMH5ptGUEnUJv30E1kGa+2bDuT4ss
dH5uAlqu8Lo6ltpDBeqTG4yAimHkVHK33jCXYvvncBvz/ulJ6mt9FzQyJeDiBMOo
0mgYiMugfZKkmsZWzBHIvQRHcmOHQiN9cMvqulje8ag9eEI6yPtAyMBt1C8eZepE
jxD7AvZgukgN9W7nqQ6Z7yNFgK0Fps0qvCNVyRZ/eLUQAjRNqA3y4a6ulJxq+GVQ
63D+S7kJtaDeGAIUuMp1t4/cJZEHlsrQ73vmPYwlmtu9oeniXPKwess/Idx2/JVw
n53+Ov3SHEBenYSAkg7IYXdnrvc+8sXV0VcqgnA5K99l8A/fpqv5zthYRYfTN/+N
nHnHO9bYe/OiEKUyxTGmJfoik+ubWwe1E5fo5SmpoEErK10XykBE3A6fIuZ+ZzBf
Gnm8DViHS4NeAbuBfe+HsXFUo9jnw9JDAkq5/fdHWJmzrBDxH3HYRe/IVXM231dV
kzudl0HfSiQBPyR/Wl8fa7YLy2Jn5uKbpqobQ3+3tPVGb7SfrVvyjft7I3y7NTm0
t97S6F2Keh3Eqv/aNZXbju/y12+OkfX1Nw1HYLwk+VDZv3Q7m2N8+9msmOvdot10
z/lB
-----END CERTIFICATE-----
