Certificate:
    Data:
        Version: 3 (0x2)
        Serial Number: 4 (0x4)
    Signature Algorithm: sha256WithRSAEncryption
        Issuer: C=US, ST=CA, L=SanFrancisco, O=Fort-Funston, OU=MyOrganizationalUnit, CN=Fort-Funston CA/name=EasyRSA/emailAddress=me@myhost.mydomain
        Validity
            Not Before: May  8 12:04:41 2016 GMT
            Not After : May  6 12:04:41 2026 GMT
        Subject: C=US, ST=CA, L=SanFrancisco, O=Fort-Funston, OU=MyOrganizationalUnit, CN=ipad/name=EasyRSA/emailAddress=me@myhost.mydomain
        Subject Public Key Info:
            Public Key Algorithm: rsaEncryption
                Public-Key: (4096 bit)
                Modulus:
                    00:cd:ef:47:06:b2:cd:97:22:88:74:a9:db:56:51:
                    d7:6c:b4:02:3e:19:00:42:f8:9a:2c:21:53:4c:bc:
                    a8:02:b5:8e:41:51:93:fa:dd:52:cf:fb:c9:5e:c3:
                    ae:31:a4:61:f6:cb:a3:cf:73:8d:48:43:c1:97:93:
                    90:58:0e:4f:1c:5b:d9:07:a4:5d:4e:a5:51:df:66:
                    4f:06:59:2a:55:b1:8c:b0:fe:e9:72:db:6c:29:4f:
                    83:f6:d8:76:e2:0a:4b:11:bd:a4:6b:b9:64:36:78:
                    dd:15:0c:70:47:ca:21:26:d7:b9:10:71:37:92:21:
                    78:ff:d0:c1:c3:e0:89:1d:75:17:1e:8c:38:a3:9b:
                    ef:6e:48:d7:d7:4c:25:42:87:c2:e1:90:2b:80:db:
                    b0:d5:87:88:da:9b:14:7c:48:ae:6c:c6:0c:4a:38:
                    e0:2d:93:d8:4e:61:dd:4d:bf:e3:9c:fb:05:45:61:
                    35:33:3c:2b:57:2e:0c:be:68:aa:6e:ee:10:f2:9b:
                    33:53:0e:d0:0c:46:9a:c2:9c:5c:de:29:67:fa:ba:
                    70:9a:b0:a8:fb:da:78:fd:0f:24:0c:1c:a5:bd:4b:
                    ad:c1:db:fa:61:1a:b9:05:c2:15:9b:77:73:d2:2a:
                    a2:0c:38:4c:98:aa:36:79:a5:86:ab:84:e8:b8:ea:
                    b0:09:d3:6a:e2:cf:b7:18:0b:c9:08:30:f4:52:14:
                    b6:b6:cf:c0:be:56:fc:0f:44:8a:04:9d:f1:41:23:
                    d2:3a:98:72:0a:6e:59:99:bf:c6:67:7e:5d:dc:d8:
                    d8:2f:81:58:a5:2f:72:34:e4:51:c5:6e:3e:93:2f:
                    39:a5:f1:3b:71:4b:16:f7:d8:b3:f5:e8:5b:5f:3c:
                    85:3f:b4:c8:5a:ba:33:0b:43:11:da:c6:32:15:e4:
                    91:84:80:0b:a6:18:a5:04:e1:c6:ee:69:d0:b0:57:
                    85:6e:04:be:33:2c:2c:2f:b4:48:7b:3d:36:ec:dc:
                    cf:ea:85:48:6a:d4:3a:b3:b2:44:6e:1a:65:5d:3a:
                    30:f3:48:3a:9e:2f:79:8b:3f:d5:76:a9:b0:5c:9e:
                    a2:b2:d7:c0:bf:ee:bf:7d:55:31:9b:98:7d:44:91:
                    b3:48:e5:2d:5d:c0:82:a7:9b:5f:65:20:46:07:22:
                    db:f1:ff:c4:d6:76:bd:3c:73:a6:ab:5c:9e:f7:16:
                    a5:9f:9e:65:b4:b7:75:8f:fb:ac:5e:bf:77:c6:ca:
                    62:77:0e:5c:96:1e:96:e2:f8:64:73:98:78:12:0a:
                    a7:b0:b2:a8:2e:95:f8:2a:92:68:c8:55:93:a6:3e:
                    0c:ac:ca:6d:4c:e6:e0:57:9b:d1:fa:85:ac:a6:16:
                    7e:9d:61
                Exponent: 65537 (0x10001)
        X509v3 extensions:
            X509v3 Basic Constraints: 
                CA:FALSE
            Netscape Comment: 
                Easy-RSA Generated Certificate
            X509v3 Subject Key Identifier: 
                67:F5:96:33:44:45:57:1E:FA:03:2F:50:C4:1C:3F:EC:8A:BB:7A:F5
            X509v3 Authority Key Identifier: 
                keyid:C9:1F:D5:5E:CC:4F:F1:BC:9F:4E:EE:45:FC:A2:DB:4D:0A:A5:D4:4C
                DirName:/C=US/ST=CA/L=SanFrancisco/O=Fort-Funston/OU=MyOrganizationalUnit/CN=Fort-Funston CA/name=EasyRSA/emailAddress=me@myhost.mydomain
                serial:8B:65:63:9C:EF:90:C1:52

            X509v3 Extended Key Usage: 
                TLS Web Client Authentication
            X509v3 Key Usage: 
                Digital Signature
    Signature Algorithm: sha256WithRSAEncryption
         70:0a:bb:52:17:cf:08:f5:1a:59:77:84:8c:88:61:a6:88:41:
         df:a7:8b:95:7c:81:1a:16:7b:1d:ce:ba:9e:77:b3:e4:c8:ac:
         d8:b9:61:92:1c:25:86:e0:fd:ff:e8:f4:d1:17:0b:60:92:66:
         6f:7d:8d:06:f6:37:a8:6f:a6:26:2e:51:c6:d1:ac:5b:6a:36:
         04:c8:6d:a6:d6:59:ec:91:27:4a:d5:7c:e5:4a:ea:27:53:37:
         30:31:b3:9c:24:7a:ef:fa:60:3b:08:17:7f:83:26:b3:6c:d4:
         c8:a9:58:df:b8:2f:06:f8:57:15:d3:7c:e3:a9:42:c3:2a:42:
         0d:ea:55:f2:06:ce:92:2f:b2:44:0b:88:da:32:b0:a5:f5:c8:
         be:7b:ef:b1:93:b3:9a:b8:cc:eb:21:15:3f:6f:a4:ac:f3:e6:
         38:69:8a:40:76:bc:3f:c9:31:26:c8:36:67:08:66:8e:95:6d:
         9c:c9:45:86:fa:4a:b8:df:4e:56:f8:01:1e:79:06:76:dd:04:
         45:54:bf:c4:c4:25:e7:87:83:ec:5b:b1:82:b6:43:43:d2:b3:
         86:57:f3:fd:3a:c2:e8:00:d5:9b:af:7d:08:a4:8e:9b:60:3c:
         26:45:ad:2d:e6:6d:fb:86:a3:3a:d1:eb:af:63:2e:d7:ae:f5:
         2a:bd:57:bf:0f:27:01:19:6f:f1:45:36:1e:5e:ae:7e:f0:b4:
         ff:5a:e9:11:34:a3:e2:64:97:07:89:fb:2e:9d:2d:b0:26:ab:
         4f:25:cb:7b:16:85:52:e0:aa:e0:27:23:36:e3:c6:cc:09:98:
         5a:3a:f6:cd:f8:0e:99:9d:7d:36:67:c9:09:70:36:0e:b0:7d:
         11:99:e4:ad:e4:ad:d4:e1:74:bf:28:64:3d:7a:51:79:f7:8d:
         92:b1:36:2b:41:55:1b:8a:92:1f:d4:17:5a:27:e1:71:7f:ee:
         7d:44:20:12:69:41:c4:b4:26:71:ed:dd:d5:06:81:56:fa:20:
         73:92:68:9e:0e:ae:7a:d9:8c:2f:65:96:8c:06:02:c2:03:f4:
         22:94:83:9a:a0:75:57:7a:52:8c:a5:1e:c0:31:f5:b8:1a:a9:
         49:69:d9:27:2a:d9:b5:36:86:f2:96:77:bc:03:26:4a:9b:53:
         0a:e3:80:3c:8d:17:bc:96:c1:f6:a2:f3:93:b3:b7:e4:3e:19:
         16:90:b7:fa:85:d5:01:67:18:bb:fa:fe:39:9a:cb:b4:68:10:
         cd:c1:4e:81:3f:93:aa:8a:b0:27:93:5d:fc:5c:45:b4:b8:67:
         5b:aa:d6:4c:6a:fd:6a:db:98:e0:9e:ad:ac:14:35:54:8e:a7:
         01:86:ef:52:96:16:42:a7
-----BEGIN CERTIFICATE-----
MIIHTTCCBTWgAwIBAgIBBDANBgkqhkiG9w0BAQsFADCBtjELMAkGA1UEBhMCVVMx
CzAJBgNVBAgTAkNBMRUwEwYDVQQHEwxTYW5GcmFuY2lzY28xFTATBgNVBAoTDEZv
cnQtRnVuc3RvbjEdMBsGA1UECxMUTXlPcmdhbml6YXRpb25hbFVuaXQxGDAWBgNV
BAMTD0ZvcnQtRnVuc3RvbiBDQTEQMA4GA1UEKRMHRWFzeVJTQTEhMB8GCSqGSIb3
DQEJARYSbWVAbXlob3N0Lm15ZG9tYWluMB4XDTE2MDUwODEyMDQ0MVoXDTI2MDUw
NjEyMDQ0MVowgasxCzAJBgNVBAYTAlVTMQswCQYDVQQIEwJDQTEVMBMGA1UEBxMM
U2FuRnJhbmNpc2NvMRUwEwYDVQQKEwxGb3J0LUZ1bnN0b24xHTAbBgNVBAsTFE15
T3JnYW5pemF0aW9uYWxVbml0MQ0wCwYDVQQDEwRpcGFkMRAwDgYDVQQpEwdFYXN5
UlNBMSEwHwYJKoZIhvcNAQkBFhJtZUBteWhvc3QubXlkb21haW4wggIiMA0GCSqG
SIb3DQEBAQUAA4ICDwAwggIKAoICAQDN70cGss2XIoh0qdtWUddstAI+GQBC+Jos
IVNMvKgCtY5BUZP63VLP+8lew64xpGH2y6PPc41IQ8GXk5BYDk8cW9kHpF1OpVHf
Zk8GWSpVsYyw/uly22wpT4P22HbiCksRvaRruWQ2eN0VDHBHyiEm17kQcTeSIXj/
0MHD4IkddRcejDijm+9uSNfXTCVCh8LhkCuA27DVh4jamxR8SK5sxgxKOOAtk9hO
Yd1Nv+Oc+wVFYTUzPCtXLgy+aKpu7hDymzNTDtAMRprCnFzeKWf6unCasKj72nj9
DyQMHKW9S63B2/phGrkFwhWbd3PSKqIMOEyYqjZ5pYarhOi46rAJ02riz7cYC8kI
MPRSFLa2z8C+VvwPRIoEnfFBI9I6mHIKblmZv8Znfl3c2NgvgVilL3I05FHFbj6T
Lzml8TtxSxb32LP16FtfPIU/tMhaujMLQxHaxjIV5JGEgAumGKUE4cbuadCwV4Vu
BL4zLCwvtEh7PTbs3M/qhUhq1DqzskRuGmVdOjDzSDqeL3mLP9V2qbBcnqKy18C/
7r99VTGbmH1EkbNI5S1dwIKnm19lIEYHItvx/8TWdr08c6arXJ73FqWfnmW0t3WP
+6xev3fGymJ3DlyWHpbi+GRzmHgSCqewsqgulfgqkmjIVZOmPgysym1M5uBXm9H6
haymFn6dYQIDAQABo4IBbTCCAWkwCQYDVR0TBAIwADAtBglghkgBhvhCAQ0EIBYe
RWFzeS1SU0EgR2VuZXJhdGVkIENlcnRpZmljYXRlMB0GA1UdDgQWBBRn9ZYzREVX
HvoDL1DEHD/sirt69TCB6wYDVR0jBIHjMIHggBTJH9VezE/xvJ9O7kX8ottNCqXU
TKGBvKSBuTCBtjELMAkGA1UEBhMCVVMxCzAJBgNVBAgTAkNBMRUwEwYDVQQHEwxT
YW5GcmFuY2lzY28xFTATBgNVBAoTDEZvcnQtRnVuc3RvbjEdMBsGA1UECxMUTXlP
cmdhbml6YXRpb25hbFVuaXQxGDAWBgNVBAMTD0ZvcnQtRnVuc3RvbiBDQTEQMA4G
A1UEKRMHRWFzeVJTQTEhMB8GCSqGSIb3DQEJARYSbWVAbXlob3N0Lm15ZG9tYWlu
ggkAi2VjnO+QwVIwEwYDVR0lBAwwCgYIKwYBBQUHAwIwCwYDVR0PBAQDAgeAMA0G
CSqGSIb3DQEBCwUAA4ICAQBwCrtSF88I9RpZd4SMiGGmiEHfp4uVfIEaFnsdzrqe
d7PkyKzYuWGSHCWG4P3/6PTRFwtgkmZvfY0G9jeob6YmLlHG0axbajYEyG2m1lns
kSdK1XzlSuonUzcwMbOcJHrv+mA7CBd/gyazbNTIqVjfuC8G+FcV03zjqULDKkIN
6lXyBs6SL7JEC4jaMrCl9ci+e++xk7OauMzrIRU/b6Ss8+Y4aYpAdrw/yTEmyDZn
CGaOlW2cyUWG+kq4305W+AEeeQZ23QRFVL/ExCXnh4PsW7GCtkND0rOGV/P9OsLo
ANWbr30IpI6bYDwmRa0t5m37hqM60euvYy7XrvUqvVe/DycBGW/xRTYeXq5+8LT/
WukRNKPiZJcHifsunS2wJqtPJct7FoVS4KrgJyM248bMCZhaOvbN+A6ZnX02Z8kJ
cDYOsH0RmeSt5K3U4XS/KGQ9elF5942SsTYrQVUbipIf1BdaJ+Fxf+59RCASaUHE
tCZx7d3VBoFW+iBzkmieDq562YwvZZaMBgLCA/QilIOaoHVXelKMpR7AMfW4GqlJ
adknKtm1Nobylne8AyZKm1MK44A8jRe8lsH2ovOTs7fkPhkWkLf6hdUBZxi7+v45
msu0aBDNwU6BP5OqirAnk138XEW0uGdbqtZMav1q25jgnq2sFDVUjqcBhu9SlhZC
pw==
-----END CERTIFICATE-----
