Certificate:
    Data:
        Version: 3 (0x2)
        Serial Number: 5 (0x5)
    Signature Algorithm: sha256WithRSAEncryption
        Issuer: C=US, ST=CA, L=SanFrancisco, O=Fort-Funston, OU=MyOrganizationalUnit, CN=Fort-Funston CA/name=EasyRSA/emailAddress=me@myhost.mydomain
        Validity
            Not Before: May  8 12:05:00 2016 GMT
            Not After : May  6 12:05:00 2026 GMT
        Subject: C=US, ST=CA, L=SanFrancisco, O=Fort-Funston, OU=MyOrganizationalUnit, CN=one/name=EasyRSA/emailAddress=me@myhost.mydomain
        Subject Public Key Info:
            Public Key Algorithm: rsaEncryption
                Public-Key: (4096 bit)
                Modulus:
                    00:e3:a3:99:ad:8e:d6:62:b4:5b:a6:64:2d:97:c5:
                    16:e6:77:4e:55:24:7e:da:23:8f:e7:bb:41:25:a3:
                    ee:57:31:6c:72:82:73:4d:c1:e7:16:a9:69:bd:c4:
                    38:a5:9e:d1:7b:b3:e5:17:3e:91:60:c7:a9:c8:00:
                    f2:21:98:03:eb:70:83:ca:68:92:17:9e:51:97:8a:
                    80:c9:69:f3:fc:17:b1:4e:0b:ab:2a:1f:b9:99:71:
                    26:82:7d:bd:9d:19:a0:ef:93:22:3a:42:01:8f:07:
                    6a:80:94:fe:14:5f:13:69:27:4f:e4:22:5e:45:c6:
                    d3:1c:12:32:37:d0:fa:93:51:10:3c:c0:b6:7c:62:
                    07:43:29:08:99:15:46:c6:d6:ab:57:a1:32:be:eb:
                    9d:95:7b:14:09:ca:7f:4d:57:1f:ae:bd:f1:74:25:
                    f4:a2:de:22:11:6c:10:c4:d3:ab:05:04:05:77:b2:
                    e3:fc:44:55:29:9a:02:44:62:e4:c2:d8:a0:fb:6c:
                    f1:7f:c8:80:c3:2f:f3:1e:be:28:9a:9a:e5:71:03:
                    4c:2b:df:73:ef:9c:0f:04:f2:76:ca:ad:09:a0:37:
                    fa:ac:46:02:1d:02:27:9d:e1:44:ee:df:d3:1d:e3:
                    a0:55:58:9e:63:1f:ea:f7:02:a5:84:5f:33:da:87:
                    8b:a2:ce:ca:34:a6:d9:56:5c:64:4f:5b:01:f6:6a:
                    3b:40:81:2a:67:50:af:a8:cf:93:b5:4d:35:65:27:
                    06:c4:b7:91:8a:33:d6:29:7a:e8:16:8b:20:19:8a:
                    13:53:b3:2e:6a:ac:d7:b2:49:7e:3d:28:cd:9c:23:
                    08:84:b8:2a:88:4f:cd:27:ed:24:5f:68:24:4a:af:
                    04:b3:f3:a8:10:5d:94:36:98:9a:ad:c7:9b:e3:47:
                    e5:b3:0b:f9:aa:03:18:59:41:e9:81:85:e6:3d:da:
                    05:c9:2f:a9:b1:99:6d:41:d5:93:b8:4a:d4:f9:23:
                    fa:27:e9:20:33:c7:5e:74:4d:23:ab:15:08:9f:0c:
                    e8:13:59:ed:36:43:45:07:01:3f:52:e4:2c:39:b8:
                    70:d5:61:17:c6:99:ce:00:15:7f:1b:44:b9:89:eb:
                    07:f8:7f:ea:6c:66:30:ce:a8:ca:8e:78:22:68:4c:
                    03:1a:35:a4:5f:04:f1:eb:83:48:ee:16:91:c8:03:
                    d2:c9:60:9c:d0:c0:84:7b:49:5b:54:54:fe:3b:90:
                    c2:9c:f3:68:26:36:e2:83:f8:83:ce:df:d0:42:38:
                    30:8d:37:48:4c:e9:8a:87:0f:fd:88:a6:68:9a:0d:
                    fc:7a:79:36:52:2e:3b:2d:7a:ea:f8:8a:d8:47:83:
                    85:0b:87
                Exponent: 65537 (0x10001)
        X509v3 extensions:
            X509v3 Basic Constraints: 
                CA:FALSE
            Netscape Comment: 
                Easy-RSA Generated Certificate
            X509v3 Subject Key Identifier: 
                7E:64:7F:DB:56:F9:C5:D5:8C:89:08:62:A1:08:6A:F9:A1:B1:FE:A2
            X509v3 Authority Key Identifier: 
                keyid:C9:1F:D5:5E:CC:4F:F1:BC:9F:4E:EE:45:FC:A2:DB:4D:0A:A5:D4:4C
                DirName:/C=US/ST=CA/L=SanFrancisco/O=Fort-Funston/OU=MyOrganizationalUnit/CN=Fort-Funston CA/name=EasyRSA/emailAddress=me@myhost.mydomain
                serial:8B:65:63:9C:EF:90:C1:52

            X509v3 Extended Key Usage: 
                TLS Web Client Authentication
            X509v3 Key Usage: 
                Digital Signature
    Signature Algorithm: sha256WithRSAEncryption
         2f:92:08:0f:e8:2b:3a:df:b0:49:f9:57:d4:02:76:2d:8f:8f:
         75:a7:53:71:0f:73:ea:bc:b2:17:71:37:96:56:c4:10:07:0c:
         be:43:95:c3:c7:6a:f1:ac:4b:a6:01:a7:70:bd:ac:9e:f6:22:
         64:23:0d:38:20:2d:8b:ee:f2:50:c4:d8:8e:76:8d:03:97:8b:
         97:31:87:e4:36:51:5d:9e:5f:dd:14:82:2e:e8:7f:ec:de:0d:
         b1:70:f3:e2:04:a2:fc:40:8d:0a:d3:de:9f:fc:58:df:d2:c9:
         97:be:22:ba:0b:05:2f:38:8d:40:bc:52:df:bb:3e:4c:9c:3f:
         26:b3:95:e4:72:54:4f:6c:54:40:cd:51:e3:7c:ea:9a:f2:96:
         3e:a6:92:14:5b:bf:18:17:9e:04:6a:f1:fe:b1:b6:e7:9f:81:
         ab:f1:3a:44:66:11:d2:96:97:0a:ec:80:6f:d6:bc:6d:61:55:
         d0:e5:1c:99:13:1f:4e:06:19:ec:9f:f4:2c:85:63:c3:8b:ca:
         31:13:8b:98:43:d6:30:07:75:86:b8:b4:be:72:ee:bc:ec:bf:
         a8:94:ee:40:0b:bf:53:84:ba:61:54:f9:4c:93:f5:51:b7:e9:
         53:ea:1c:37:d8:6d:9b:11:ba:07:84:03:49:8e:82:c8:72:6d:
         ad:2b:ca:45:70:cd:0e:f7:1e:12:32:14:5e:13:a7:71:1a:b4:
         d7:17:f5:12:e6:d7:9d:77:ea:3f:49:96:27:35:d6:75:c3:a1:
         8e:04:a5:2a:ac:29:96:22:11:7e:5d:21:5e:fb:af:95:3e:64:
         b0:28:42:ab:18:43:a0:c8:7d:02:c7:d9:0e:bb:52:70:34:a5:
         25:b5:5b:d2:44:d4:5c:e7:0d:29:4d:ef:ab:59:70:bd:90:fa:
         d2:82:50:e5:31:d4:4d:bf:59:11:c2:d6:f4:75:2c:fe:c3:1d:
         f8:df:a9:93:31:38:88:b6:73:d4:44:f4:6e:76:73:34:94:91:
         f6:85:85:ae:37:cc:dc:b1:bd:12:8d:9f:2c:d9:0e:b4:90:93:
         8d:50:aa:04:41:89:98:50:c6:71:aa:66:8d:e6:b5:b3:fa:d5:
         64:e3:c6:43:e5:57:16:5c:4b:3e:61:87:d5:58:86:94:5f:5a:
         f9:5f:e3:42:58:80:c3:67:e9:1c:34:a2:10:00:49:b8:8f:bd:
         fa:eb:92:1c:06:ea:11:f2:33:aa:d8:c7:d4:ba:bf:6b:85:cb:
         c5:a2:94:96:53:f8:db:1a:9a:2f:28:b2:d7:94:e5:5e:55:27:
         64:06:95:6e:8a:80:9a:b2:6a:cd:37:95:71:cc:84:90:f0:ad:
         2c:6a:e1:37:c9:08:7d:e7
-----BEGIN CERTIFICATE-----
MIIHTDCCBTSgAwIBAgIBBTANBgkqhkiG9w0BAQsFADCBtjELMAkGA1UEBhMCVVMx
CzAJBgNVBAgTAkNBMRUwEwYDVQQHEwxTYW5GcmFuY2lzY28xFTATBgNVBAoTDEZv
cnQtRnVuc3RvbjEdMBsGA1UECxMUTXlPcmdhbml6YXRpb25hbFVuaXQxGDAWBgNV
BAMTD0ZvcnQtRnVuc3RvbiBDQTEQMA4GA1UEKRMHRWFzeVJTQTEhMB8GCSqGSIb3
DQEJARYSbWVAbXlob3N0Lm15ZG9tYWluMB4XDTE2MDUwODEyMDUwMFoXDTI2MDUw
NjEyMDUwMFowgaoxCzAJBgNVBAYTAlVTMQswCQYDVQQIEwJDQTEVMBMGA1UEBxMM
U2FuRnJhbmNpc2NvMRUwEwYDVQQKEwxGb3J0LUZ1bnN0b24xHTAbBgNVBAsTFE15
T3JnYW5pemF0aW9uYWxVbml0MQwwCgYDVQQDEwNvbmUxEDAOBgNVBCkTB0Vhc3lS
U0ExITAfBgkqhkiG9w0BCQEWEm1lQG15aG9zdC5teWRvbWFpbjCCAiIwDQYJKoZI
hvcNAQEBBQADggIPADCCAgoCggIBAOOjma2O1mK0W6ZkLZfFFuZ3TlUkftojj+e7
QSWj7lcxbHKCc03B5xapab3EOKWe0Xuz5Rc+kWDHqcgA8iGYA+twg8pokheeUZeK
gMlp8/wXsU4LqyofuZlxJoJ9vZ0ZoO+TIjpCAY8HaoCU/hRfE2knT+QiXkXG0xwS
MjfQ+pNREDzAtnxiB0MpCJkVRsbWq1ehMr7rnZV7FAnKf01XH6698XQl9KLeIhFs
EMTTqwUEBXey4/xEVSmaAkRi5MLYoPts8X/IgMMv8x6+KJqa5XEDTCvfc++cDwTy
dsqtCaA3+qxGAh0CJ53hRO7f0x3joFVYnmMf6vcCpYRfM9qHi6LOyjSm2VZcZE9b
AfZqO0CBKmdQr6jPk7VNNWUnBsS3kYoz1il66BaLIBmKE1OzLmqs17JJfj0ozZwj
CIS4KohPzSftJF9oJEqvBLPzqBBdlDaYmq3Hm+NH5bML+aoDGFlB6YGF5j3aBckv
qbGZbUHVk7hK1Pkj+ifpIDPHXnRNI6sVCJ8M6BNZ7TZDRQcBP1LkLDm4cNVhF8aZ
zgAVfxtEuYnrB/h/6mxmMM6oyo54ImhMAxo1pF8E8euDSO4WkcgD0slgnNDAhHtJ
W1RU/juQwpzzaCY24oP4g87f0EI4MI03SEzpiocP/YimaJoN/Hp5NlIuOy166viK
2EeDhQuHAgMBAAGjggFtMIIBaTAJBgNVHRMEAjAAMC0GCWCGSAGG+EIBDQQgFh5F
YXN5LVJTQSBHZW5lcmF0ZWQgQ2VydGlmaWNhdGUwHQYDVR0OBBYEFH5kf9tW+cXV
jIkIYqEIavmhsf6iMIHrBgNVHSMEgeMwgeCAFMkf1V7MT/G8n07uRfyi200KpdRM
oYG8pIG5MIG2MQswCQYDVQQGEwJVUzELMAkGA1UECBMCQ0ExFTATBgNVBAcTDFNh
bkZyYW5jaXNjbzEVMBMGA1UEChMMRm9ydC1GdW5zdG9uMR0wGwYDVQQLExRNeU9y
Z2FuaXphdGlvbmFsVW5pdDEYMBYGA1UEAxMPRm9ydC1GdW5zdG9uIENBMRAwDgYD
VQQpEwdFYXN5UlNBMSEwHwYJKoZIhvcNAQkBFhJtZUBteWhvc3QubXlkb21haW6C
CQCLZWOc75DBUjATBgNVHSUEDDAKBggrBgEFBQcDAjALBgNVHQ8EBAMCB4AwDQYJ
KoZIhvcNAQELBQADggIBAC+SCA/oKzrfsEn5V9QCdi2Pj3WnU3EPc+q8shdxN5ZW
xBAHDL5DlcPHavGsS6YBp3C9rJ72ImQjDTggLYvu8lDE2I52jQOXi5cxh+Q2UV2e
X90Ugi7of+zeDbFw8+IEovxAjQrT3p/8WN/SyZe+IroLBS84jUC8Ut+7PkycPyaz
leRyVE9sVEDNUeN86prylj6mkhRbvxgXngRq8f6xtuefgavxOkRmEdKWlwrsgG/W
vG1hVdDlHJkTH04GGeyf9CyFY8OLyjETi5hD1jAHdYa4tL5y7rzsv6iU7kALv1OE
umFU+UyT9VG36VPqHDfYbZsRugeEA0mOgshyba0rykVwzQ73HhIyFF4Tp3EatNcX
9RLm15136j9Jlic11nXDoY4EpSqsKZYiEX5dIV77r5U+ZLAoQqsYQ6DIfQLH2Q67
UnA0pSW1W9JE1FznDSlN76tZcL2Q+tKCUOUx1E2/WRHC1vR1LP7DHfjfqZMxOIi2
c9RE9G52czSUkfaFha43zNyxvRKNnyzZDrSQk41QqgRBiZhQxnGqZo3mtbP61WTj
xkPlVxZcSz5hh9VYhpRfWvlf40JYgMNn6Rw0ohAASbiPvfrrkhwG6hHyM6rYx9S6
v2uFy8WilJZT+Nsami8osteU5V5VJ2QGlW6KgJqyas03lXHMhJDwrSxq4TfJCH3n
-----END CERTIFICATE-----
